target datalayout = "e-m:e-p270:32:32-p271:32:32-p272:64:64-i64:64-i128:128-f80:128-n8:16:32:64-S128"
target triple = "x86_64-pc-linux-gnu"

%struct.expert_field = type { i32, i32 }

@ei_nas_5gs_extraneous_data = internal global %struct.expert_field zeroinitializer, align 4

; Function Attrs: null_pointer_is_valid sspstrong uwtable
define internal zeroext i16 @de_nas_5gs_mm_pdu_ses_react_res(ptr noundef %0, ptr noundef %1, ptr noundef %2, i32 noundef %3, i32 noundef %4, ptr noundef %5, i32 noundef %6) #0 {
  %8 = alloca ptr, align 8
  %9 = alloca ptr, align 8
  %10 = alloca ptr, align 8
  %11 = alloca i32, align 4
  %12 = alloca i32, align 4
  %13 = alloca ptr, align 8
  %14 = alloca i32, align 4
  %15 = alloca i32, align 4
  store ptr %0, ptr %8, align 8
  store ptr %1, ptr %9, align 8
  store ptr %2, ptr %10, align 8
  store i32 %3, ptr %11, align 4
  store i32 %4, ptr %12, align 4
  store ptr %5, ptr %13, align 8
  store i32 %6, ptr %14, align 4
  call void @llvm.lifetime.start.p0(i64 4, ptr %15) #11
  %16 = load i32, ptr %11, align 4
  store i32 %16, ptr %15, align 4
  %17 = load ptr, ptr %9, align 8
  %18 = load ptr, ptr %8, align 8
  %19 = load i32, ptr %15, align 4
  call void @proto_tree_add_bitmask_list(ptr noundef %17, ptr noundef %18, i32 noundef %19, i32 noundef 1, ptr noundef @de_nas_5gs_mm_pdu_ses_react_res.psi_0_7_flags, i32 noundef 0)
  %20 = load i32, ptr %15, align 4
  %21 = add i32 %20, 1
  store i32 %21, ptr %15, align 4
  %22 = load ptr, ptr %9, align 8
  %23 = load ptr, ptr %8, align 8
  %24 = load i32, ptr %15, align 4
  call void @proto_tree_add_bitmask_list(ptr noundef %22, ptr noundef %23, i32 noundef %24, i32 noundef 1, ptr noundef @de_nas_5gs_mm_pdu_ses_react_res.psi_8_15_flags, i32 noundef 0)
  %25 = load i32, ptr %15, align 4
  %26 = add i32 %25, 1
  store i32 %26, ptr %15, align 4
  %27 = load i32, ptr %12, align 4
  %28 = load i32, ptr %15, align 4
  %29 = load i32, ptr %11, align 4
  %30 = sub i32 %28, %29
  %31 = icmp ugt i32 %27, %30
  br i1 %31, label %32, label %50

32:                                               ; preds = %7
  %33 = load ptr, ptr %9, align 8
  %34 = load ptr, ptr %10, align 8
  %35 = load ptr, ptr %8, align 8
  %36 = load i32, ptr %15, align 4
  %37 = load i32, ptr %12, align 4
  %38 = load i32, ptr %15, align 4
  %39 = load i32, ptr %11, align 4
  %40 = sub i32 %38, %39
  %41 = sub i32 %37, %40
  %42 = call ptr @proto_tree_add_expert(ptr noundef %33, ptr noundef %34, ptr noundef @ei_nas_5gs_extraneous_data, ptr noundef %35, i32 noundef %36, i32 noundef %41)
  %43 = load i32, ptr %12, align 4
  %44 = load i32, ptr %15, align 4
  %45 = load i32, ptr %11, align 4
  %46 = sub i32 %44, %45
  %47 = sub i32 %43, %46
  %48 = load i32, ptr %15, align 4
  %49 = add i32 %48, %47
  store i32 %49, ptr %15, align 4
  br label %50

50:                                               ; preds = %32, %7
  %51 = load i32, ptr %15, align 4
  %52 = load i32, ptr %11, align 4
  %53 = sub i32 %51, %52
  %54 = trunc i32 %53 to i16
  call void @llvm.lifetime.end.p0(i64 4, ptr %15) #11
  ret i16 %54
}